; Function Attrs: mustprogress nounwind uwtable
define hidden void @_ZN8XWorkers3runEP5XTask(ptr noundef nonnull align 8 dereferenceable(120) %0, ptr noundef %1) local_unnamed_addr #0 align 2 {
  %3 = load volatile ptr, ptr getelementptr inbounds (i8, ptr @_ZN16LogTagSetMappingILN6LogTag4typeE49ELS1_158ELS1_0ELS1_0ELS1_0ELS1_0EE7_tagsetE, i64 56), align 8
  %.not = icmp eq ptr %3, null
  br i1 %.not, label %8, label %4

4:                                                ; preds = %2
  %5 = tail call noundef ptr @_ZNK5XTask4nameEv(ptr noundef nonnull align 8 dereferenceable(40) %1) #8
  %6 = getelementptr inbounds i8, ptr %0, i64 32
  %7 = load i32, ptr %6, align 8
  tail call void (ptr, ...) @_ZN7LogImplILN6LogTag4typeE49ELS1_158ELS1_0ELS1_0ELS1_0ELS1_0EE5writeILN8LogLevel4typeE2EEEvPKcz(ptr noundef nonnull @.str.8, ptr noundef %5, i32 noundef %7)
  br label %8

8:                                                ; preds = %2, %4
  tail call void @_ZN12XStatWorkers8at_startEv() #8
  %9 = tail call noundef ptr @_ZN5XTask11worker_taskEv(ptr noundef nonnull align 8 dereferenceable(40) %1) #8
  tail call void @_ZN13WorkerThreads8run_taskEP10WorkerTask(ptr noundef nonnull align 8 dereferenceable(120) %0, ptr noundef %9) #8
  tail call void @_ZN12XStatWorkers6at_endEv() #8
  ret void
}